; ModuleID = '46/1975.c'
source_filename = "46/1975.c"
target datalayout = "e-m:e-p270:32:32-p271:32:32-p272:64:64-i64:64-f80:128-n8:16:32:64-S128"
target triple = "x86_64-pc-linux-gnu"

@.str = private unnamed_addr constant [5 x i8] c"%d%d\00", align 1
@.str.1 = private unnamed_addr constant [3 x i8] c"%d\00", align 1
@.str.2 = private unnamed_addr constant [4 x i8] c"%d\0A\00", align 1

; Function Attrs: noinline nounwind uwtable
define dso_local i32 @main() #0 {
  %1 = alloca i32, align 4
  %2 = alloca [100 x [100 x i32]], align 16
  %3 = alloca i32, align 4
  %4 = alloca i32, align 4
  %5 = alloca i32, align 4
  %6 = alloca i32, align 4
  %7 = alloca i32, align 4
  store i32 0, i32* %1, align 4
  store i32 0, i32* %5, align 4
  store i32 0, i32* %6, align 4
  %8 = call i32 (i8*, ...) @__isoc99_scanf(i8* getelementptr inbounds ([5 x i8], [5 x i8]* @.str, i64 0, i64 0), i32* %3, i32* %4)
  store i32 0, i32* %6, align 4
  br label %9

9:                                                ; preds = %32, %0
  %10 = load i32, i32* %6, align 4
  %11 = load i32, i32* %3, align 4
  %12 = sub nsw i32 %11, 1
  %13 = icmp sle i32 %10, %12
  br i1 %13, label %14, label %35

14:                                               ; preds = %9
  store i32 0, i32* %5, align 4
  br label %15

15:                                               ; preds = %28, %14
  %16 = load i32, i32* %5, align 4
  %17 = load i32, i32* %4, align 4
  %18 = sub nsw i32 %17, 1
  %19 = icmp sle i32 %16, %18
  br i1 %19, label %20, label %31

20:                                               ; preds = %15
  %21 = load i32, i32* %6, align 4
  %22 = sext i32 %21 to i64
  %23 = getelementptr inbounds [100 x [100 x i32]], [100 x [100 x i32]]* %2, i64 0, i64 %22
  %24 = load i32, i32* %5, align 4
  %25 = sext i32 %24 to i64
  %26 = getelementptr inbounds [100 x i32], [100 x i32]* %23, i64 0, i64 %25
  %27 = call i32 (i8*, ...) @__isoc99_scanf(i8* getelementptr inbounds ([3 x i8], [3 x i8]* @.str.1, i64 0, i64 0), i32* %26)
  br label %28

28:                                               ; preds = %20
  %29 = load i32, i32* %5, align 4
  %30 = add nsw i32 %29, 1
  store i32 %30, i32* %5, align 4
  br label %15

31:                                               ; preds = %15
  br label %32

32:                                               ; preds = %31
  %33 = load i32, i32* %6, align 4
  %34 = add nsw i32 %33, 1
  store i32 %34, i32* %6, align 4
  br label %9

35:                                               ; preds = %9
  %36 = load i32, i32* %3, align 4
  %37 = load i32, i32* %4, align 4
  %38 = icmp sge i32 %36, %37
  br i1 %38, label %39, label %43

39:                                               ; preds = %35
  %40 = load i32, i32* %4, align 4
  %41 = sub nsw i32 %40, 1
  %42 = sdiv i32 %41, 2
  store i32 %42, i32* %7, align 4
  br label %47

43:                                               ; preds = %35
  %44 = load i32, i32* %3, align 4
  %45 = sub nsw i32 %44, 1
  %46 = sdiv i32 %45, 2
  store i32 %46, i32* %7, align 4
  br label %47

47:                                               ; preds = %43, %39
  store i32 0, i32* %5, align 4
  br label %48

48:                                               ; preds = %167, %47
  %49 = load i32, i32* %5, align 4
  %50 = load i32, i32* %7, align 4
  %51 = icmp sle i32 %49, %50
  br i1 %51, label %52, label %170

52:                                               ; preds = %48
  %53 = load i32, i32* %5, align 4
  store i32 %53, i32* %6, align 4
  br label %54

54:                                               ; preds = %70, %52
  %55 = load i32, i32* %6, align 4
  %56 = load i32, i32* %4, align 4
  %57 = load i32, i32* %5, align 4
  %58 = sub nsw i32 %56, %57
  %59 = sub nsw i32 %58, 1
  %60 = icmp sle i32 %55, %59
  br i1 %60, label %61, label %73

61:                                               ; preds = %54
  %62 = load i32, i32* %5, align 4
  %63 = sext i32 %62 to i64
  %64 = getelementptr inbounds [100 x [100 x i32]], [100 x [100 x i32]]* %2, i64 0, i64 %63
  %65 = load i32, i32* %6, align 4
  %66 = sext i32 %65 to i64
  %67 = getelementptr inbounds [100 x i32], [100 x i32]* %64, i64 0, i64 %66
  %68 = load i32, i32* %67, align 4
  %69 = call i32 (i8*, ...) @printf(i8* getelementptr inbounds ([4 x i8], [4 x i8]* @.str.2, i64 0, i64 0), i32 %68)
  br label %70

70:                                               ; preds = %61
  %71 = load i32, i32* %6, align 4
  %72 = add nsw i32 %71, 1
  store i32 %72, i32* %6, align 4
  br label %54

73:                                               ; preds = %54
  %74 = load i32, i32* %5, align 4
  %75 = add nsw i32 %74, 1
  store i32 %75, i32* %6, align 4
  br label %76

76:                                               ; preds = %95, %73
  %77 = load i32, i32* %6, align 4
  %78 = load i32, i32* %3, align 4
  %79 = load i32, i32* %5, align 4
  %80 = sub nsw i32 %78, %79
  %81 = sub nsw i32 %80, 1
  %82 = icmp sle i32 %77, %81
  br i1 %82, label %83, label %98

83:                                               ; preds = %76
  %84 = load i32, i32* %6, align 4
  %85 = sext i32 %84 to i64
  %86 = getelementptr inbounds [100 x [100 x i32]], [100 x [100 x i32]]* %2, i64 0, i64 %85
  %87 = load i32, i32* %4, align 4
  %88 = load i32, i32* %5, align 4
  %89 = sub nsw i32 %87, %88
  %90 = sub nsw i32 %89, 1
  %91 = sext i32 %90 to i64
  %92 = getelementptr inbounds [100 x i32], [100 x i32]* %86, i64 0, i64 %91
  %93 = load i32, i32* %92, align 4
  %94 = call i32 (i8*, ...) @printf(i8* getelementptr inbounds ([4 x i8], [4 x i8]* @.str.2, i64 0, i64 0), i32 %93)
  br label %95

95:                                               ; preds = %83
  %96 = load i32, i32* %6, align 4
  %97 = add nsw i32 %96, 1
  store i32 %97, i32* %6, align 4
  br label %76

98:                                               ; preds = %76
  %99 = load i32, i32* %7, align 4
  %100 = icmp sgt i32 %99, 0
  br i1 %100, label %101, label %132

101:                                              ; preds = %98
  %102 = load i32, i32* %5, align 4
  %103 = load i32, i32* %3, align 4
  %104 = sub nsw i32 %103, 2
  %105 = sdiv i32 %104, 2
  %106 = icmp sle i32 %102, %105
  br i1 %106, label %107, label %132

107:                                              ; preds = %101
  %108 = load i32, i32* %4, align 4
  %109 = load i32, i32* %5, align 4
  %110 = sub nsw i32 %108, %109
  %111 = sub nsw i32 %110, 2
  store i32 %111, i32* %6, align 4
  br label %112

112:                                              ; preds = %128, %107
  %113 = load i32, i32* %6, align 4
  %114 = load i32, i32* %5, align 4
  %115 = icmp sge i32 %113, %114
  br i1 %115, label %116, label %131

116:                                              ; preds = %112
  %117 = load i32, i32* %3, align 4
  %118 = load i32, i32* %5, align 4
  %119 = sub nsw i32 %117, %118
  %120 = sub nsw i32 %119, 1
  %121 = sext i32 %120 to i64
  %122 = getelementptr inbounds [100 x [100 x i32]], [100 x [100 x i32]]* %2, i64 0, i64 %121
  %123 = load i32, i32* %6, align 4
  %124 = sext i32 %123 to i64
  %125 = getelementptr inbounds [100 x i32], [100 x i32]* %122, i64 0, i64 %124
  %126 = load i32, i32* %125, align 4
  %127 = call i32 (i8*, ...) @printf(i8* getelementptr inbounds ([4 x i8], [4 x i8]* @.str.2, i64 0, i64 0), i32 %126)
  br label %128

128:                                              ; preds = %116
  %129 = load i32, i32* %6, align 4
  %130 = add nsw i32 %129, -1
  store i32 %130, i32* %6, align 4
  br label %112

131:                                              ; preds = %112
  br label %133

132:                                              ; preds = %101, %98
  br label %170

133:                                              ; preds = %131
  %134 = load i32, i32* %7, align 4
  %135 = icmp sgt i32 %134, 0
  br i1 %135, label %136, label %165

136:                                              ; preds = %133
  %137 = load i32, i32* %5, align 4
  %138 = load i32, i32* %4, align 4
  %139 = sub nsw i32 %138, 2
  %140 = sdiv i32 %139, 2
  %141 = icmp sle i32 %137, %140
  br i1 %141, label %142, label %165

142:                                              ; preds = %136
  %143 = load i32, i32* %3, align 4
  %144 = load i32, i32* %5, align 4
  %145 = sub nsw i32 %143, %144
  %146 = sub nsw i32 %145, 2
  store i32 %146, i32* %6, align 4
  br label %147

147:                                              ; preds = %161, %142
  %148 = load i32, i32* %6, align 4
  %149 = load i32, i32* %5, align 4
  %150 = add nsw i32 %149, 1
  %151 = icmp sge i32 %148, %150
  br i1 %151, label %152, label %164

152:                                              ; preds = %147
  %153 = load i32, i32* %6, align 4
  %154 = sext i32 %153 to i64
  %155 = getelementptr inbounds [100 x [100 x i32]], [100 x [100 x i32]]* %2, i64 0, i64 %154
  %156 = load i32, i32* %5, align 4
  %157 = sext i32 %156 to i64
  %158 = getelementptr inbounds [100 x i32], [100 x i32]* %155, i64 0, i64 %157
  %159 = load i32, i32* %158, align 4
  %160 = call i32 (i8*, ...) @printf(i8* getelementptr inbounds ([4 x i8], [4 x i8]* @.str.2, i64 0, i64 0), i32 %159)
  br label %161

161:                                              ; preds = %152
  %162 = load i32, i32* %6, align 4
  %163 = add nsw i32 %162, -1
  store i32 %163, i32* %6, align 4
  br label %147

164:                                              ; preds = %147
  br label %166

165:                                              ; preds = %136, %133
  br label %170

166:                                              ; preds = %164
  br label %167

167:                                              ; preds = %166
  %168 = load i32, i32* %5, align 4
  %169 = add nsw i32 %168, 1
  store i32 %169, i32* %5, align 4
  br label %48

170:                                              ; preds = %165, %132, %48
  ret i32 0
}

declare dso_local i32 @__isoc99_scanf(i8*, ...) #1

declare dso_local i32 @printf(i8*, ...) #1


!llvm.module.flags = !{!0}
!llvm.ident = !{!1}

!0 = !{i32 1, !"wchar_size", i32 4}
!1 = !{!"clang version 10.0.0-4ubuntu1 "}
